target datalayout = "e-m:e-p270:32:32-p271:32:32-p272:64:64-i64:64-i128:128-f80:128-n8:16:32:64-S128"
target triple = "x86_64-pc-linux-gnu"

%"struct.pxrInternal_v0_24__pxrReserved__::TfStreamFloat" = type { float }
%"class.pxrInternal_v0_24__pxrReserved__::GfVec3f" = type { [3 x float] }

@.str.2 = private unnamed_addr constant [3 x i8] c", \00", align 1

; Function Attrs: mustprogress nounwind uwtable
define linkonce_odr void @_ZN32pxrInternal_v0_24__pxrReserved__13TfStreamFloatC2Ef(ptr noundef nonnull align 4 dereferenceable(4) %0, float noundef %1) unnamed_addr #2 comdat align 2 {
  %3 = alloca ptr, align 8
  %4 = alloca float, align 4
  store ptr %0, ptr %3, align 8
  store float %1, ptr %4, align 4
  %5 = load ptr, ptr %3, align 8
  %6 = getelementptr inbounds nuw %"struct.pxrInternal_v0_24__pxrReserved__::TfStreamFloat", ptr %5, i32 0, i32 0
  %7 = load float, ptr %4, align 4
  store float %7, ptr %6, align 4
  ret void
}

; Function Attrs: mustprogress uwtable
define linkonce_odr float @_ZN32pxrInternal_v0_24__pxrReserved__17Gf_OstreamHelperPEf(float noundef %0) #0 comdat {
  %2 = alloca %"struct.pxrInternal_v0_24__pxrReserved__::TfStreamFloat", align 4
  %3 = alloca float, align 4
  store float %0, ptr %3, align 4
  %4 = load float, ptr %3, align 4
  call void @_ZN32pxrInternal_v0_24__pxrReserved__13TfStreamFloatC2Ef(ptr noundef nonnull align 4 dereferenceable(4) %2, float noundef %4)
  %5 = getelementptr inbounds nuw %"struct.pxrInternal_v0_24__pxrReserved__::TfStreamFloat", ptr %2, i32 0, i32 0
  %6 = load float, ptr %5, align 4
  ret float %6
}

; Function Attrs: mustprogress nounwind uwtable
define linkonce_odr noundef nonnull align 4 dereferenceable(4) ptr @_ZNK32pxrInternal_v0_24__pxrReserved__7GfVec3fixEm(ptr noundef nonnull align 4 dereferenceable(12) %0, i64 noundef %1) #2 comdat align 2 {
  %3 = alloca ptr, align 8
  %4 = alloca i64, align 8
  store ptr %0, ptr %3, align 8
  store i64 %1, ptr %4, align 8
  %5 = load ptr, ptr %3, align 8
  %6 = getelementptr inbounds nuw %"class.pxrInternal_v0_24__pxrReserved__::GfVec3f", ptr %5, i32 0, i32 0
  %7 = load i64, ptr %4, align 8
  %8 = getelementptr inbounds [3 x float], ptr %6, i64 0, i64 %7
  ret ptr %8
}

; Function Attrs: mustprogress uwtable
define noundef nonnull align 8 dereferenceable(8) ptr @_ZN32pxrInternal_v0_24__pxrReserved__lsERSoRKNS_7GfVec3fE(ptr noundef nonnull align 8 dereferenceable(8) %0, ptr noundef nonnull align 4 dereferenceable(12) %1) #0 {
  %3 = alloca ptr, align 8
  %4 = alloca ptr, align 8
  %5 = alloca %"struct.pxrInternal_v0_24__pxrReserved__::TfStreamFloat", align 4
  %6 = alloca %"struct.pxrInternal_v0_24__pxrReserved__::TfStreamFloat", align 4
  %7 = alloca %"struct.pxrInternal_v0_24__pxrReserved__::TfStreamFloat", align 4
  store ptr %0, ptr %3, align 8
  store ptr %1, ptr %4, align 8
  %8 = load ptr, ptr %3, align 8
  %9 = call noundef nonnull align 8 dereferenceable(8) ptr @_ZStlsISt11char_traitsIcEERSt13basic_ostreamIcT_ES5_c(ptr noundef nonnull align 8 dereferenceable(8) %8, i8 noundef signext 40)
  %10 = load ptr, ptr %4, align 8
  %11 = call noundef nonnull align 4 dereferenceable(4) ptr @_ZNK32pxrInternal_v0_24__pxrReserved__7GfVec3fixEm(ptr noundef nonnull align 4 dereferenceable(12) %10, i64 noundef 0)
  %12 = load float, ptr %11, align 4
  %13 = call float @_ZN32pxrInternal_v0_24__pxrReserved__17Gf_OstreamHelperPEf(float noundef %12)
  %14 = getelementptr inbounds nuw %"struct.pxrInternal_v0_24__pxrReserved__::TfStreamFloat", ptr %5, i32 0, i32 0
  store float %13, ptr %14, align 4
  %15 = getelementptr inbounds nuw %"struct.pxrInternal_v0_24__pxrReserved__::TfStreamFloat", ptr %5, i32 0, i32 0
  %16 = load float, ptr %15, align 4
  %17 = call noundef nonnull align 8 dereferenceable(8) ptr @_ZN32pxrInternal_v0_24__pxrReserved__lsERSoNS_13TfStreamFloatE(ptr noundef nonnull align 8 dereferenceable(8) %9, float %16)
  %18 = call noundef nonnull align 8 dereferenceable(8) ptr @_ZStlsISt11char_traitsIcEERSt13basic_ostreamIcT_ES5_PKc(ptr noundef nonnull align 8 dereferenceable(8) %17, ptr noundef @.str.2)
  %19 = load ptr, ptr %4, align 8
  %20 = call noundef nonnull align 4 dereferenceable(4) ptr @_ZNK32pxrInternal_v0_24__pxrReserved__7GfVec3fixEm(ptr noundef nonnull align 4 dereferenceable(12) %19, i64 noundef 1)
  %21 = load float, ptr %20, align 4
  %22 = call float @_ZN32pxrInternal_v0_24__pxrReserved__17Gf_OstreamHelperPEf(float noundef %21)
  %23 = getelementptr inbounds nuw %"struct.pxrInternal_v0_24__pxrReserved__::TfStreamFloat", ptr %6, i32 0, i32 0
  store float %22, ptr %23, align 4
  %24 = getelementptr inbounds nuw %"struct.pxrInternal_v0_24__pxrReserved__::TfStreamFloat", ptr %6, i32 0, i32 0
  %25 = load float, ptr %24, align 4
  %26 = call noundef nonnull align 8 dereferenceable(8) ptr @_ZN32pxrInternal_v0_24__pxrReserved__lsERSoNS_13TfStreamFloatE(ptr noundef nonnull align 8 dereferenceable(8) %18, float %25)
  %27 = call noundef nonnull align 8 dereferenceable(8) ptr @_ZStlsISt11char_traitsIcEERSt13basic_ostreamIcT_ES5_PKc(ptr noundef nonnull align 8 dereferenceable(8) %26, ptr noundef @.str.2)
  %28 = load ptr, ptr %4, align 8
  %29 = call noundef nonnull align 4 dereferenceable(4) ptr @_ZNK32pxrInternal_v0_24__pxrReserved__7GfVec3fixEm(ptr noundef nonnull align 4 dereferenceable(12) %28, i64 noundef 2)
  %30 = load float, ptr %29, align 4
  %31 = call float @_ZN32pxrInternal_v0_24__pxrReserved__17Gf_OstreamHelperPEf(float noundef %30)
  %32 = getelementptr inbounds nuw %"struct.pxrInternal_v0_24__pxrReserved__::TfStreamFloat", ptr %7, i32 0, i32 0
  store float %31, ptr %32, align 4
  %33 = getelementptr inbounds nuw %"struct.pxrInternal_v0_24__pxrReserved__::TfStreamFloat", ptr %7, i32 0, i32 0
  %34 = load float, ptr %33, align 4
  %35 = call noundef nonnull align 8 dereferenceable(8) ptr @_ZN32pxrInternal_v0_24__pxrReserved__lsERSoNS_13TfStreamFloatE(ptr noundef nonnull align 8 dereferenceable(8) %27, float %34)
  %36 = call noundef nonnull align 8 dereferenceable(8) ptr @_ZStlsISt11char_traitsIcEERSt13basic_ostreamIcT_ES5_c(ptr noundef nonnull align 8 dereferenceable(8) %35, i8 noundef signext 41)
  ret ptr %36
}